; Function Attrs: mustprogress nounwind uwtable
define hidden noundef ptr @_ZNK12ConvF2HFNode5ValueEP8PhaseGVN(ptr nocapture noundef nonnull readonly align 8 dereferenceable(64) %0, ptr nocapture noundef readonly %1) unnamed_addr #1 align 2 {
  %3 = getelementptr inbounds i8, ptr %0, i64 8
  %4 = load ptr, ptr %3, align 8
  %5 = getelementptr inbounds i8, ptr %4, i64 8
  %6 = load ptr, ptr %5, align 8
  %7 = getelementptr inbounds i8, ptr %1, i64 40
  %8 = load ptr, ptr %7, align 8
  %9 = getelementptr inbounds i8, ptr %6, i64 40
  %10 = load i32, ptr %9, align 8
  %11 = getelementptr inbounds i8, ptr %8, i64 16
  %12 = load ptr, ptr %11, align 8
  %13 = zext i32 %10 to i64
  %14 = getelementptr inbounds ptr, ptr %12, i64 %13
  %15 = load ptr, ptr %14, align 8
  %16 = load ptr, ptr @_ZN4Type3TOPE, align 8
  %17 = icmp eq ptr %15, %16
  br i1 %17, label %32, label %18

18:                                               ; preds = %2
  %19 = load ptr, ptr @_ZN4Type5FLOATE, align 8
  %20 = icmp eq ptr %15, %19
  br i1 %20, label %24, label %21

21:                                               ; preds = %18
  %22 = load ptr, ptr @_ZN12StubRoutines5_f2hfE, align 8
  %23 = icmp eq ptr %22, null
  br i1 %23, label %24, label %26

24:                                               ; preds = %21, %18
  %25 = load ptr, ptr @_ZN7TypeInt5SHORTE, align 8
  br label %32

26:                                               ; preds = %21
  %27 = getelementptr inbounds i8, ptr %15, i64 20
  %28 = load float, ptr %27, align 4
  %29 = tail call noundef signext i16 %22(float noundef %28) #8
  %30 = sext i16 %29 to i32
  %31 = tail call noundef ptr @_ZN7TypeInt4makeEi(i32 noundef %30) #8
  br label %32

32:                                               ; preds = %2, %26, %24
  %.0 = phi ptr [ %25, %24 ], [ %31, %26 ], [ %16, %2 ]
  ret ptr %.0
}